; Function Attrs: nofree norecurse nosync nounwind memory(read, inaccessiblemem: none) uwtable
define internal i32 @_archive_filter_code(ptr noundef readonly captures(none) %0, i32 noundef %1) #6 {
  %3 = icmp eq i32 %1, -1
  br i1 %3, label %4, label %7

4:                                                ; preds = %2
  %5 = getelementptr inbounds nuw i8, ptr %0, i64 240
  %6 = load ptr, ptr %5, align 8, !tbaa !31
  br label %filter_lookup.exit

7:                                                ; preds = %2
  %8 = icmp slt i32 %1, 0
  br i1 %8, label %filter_lookup.exit.thread, label %.preheader.i

.preheader.i:                                     ; preds = %7
  %9 = getelementptr inbounds nuw i8, ptr %0, i64 232
  %.013.i = load ptr, ptr %9, align 8, !tbaa !43
  %10 = icmp ne i32 %1, 0
  %11 = icmp ne ptr %.013.i, null
  %12 = select i1 %10, i1 %11, i1 false
  br i1 %12, label %.lr.ph.i, label %filter_lookup.exit

.lr.ph.i:                                         ; preds = %.preheader.i, %.lr.ph.i
  %.015.i = phi ptr [ %.0.i, %.lr.ph.i ], [ %.013.i, %.preheader.i ]
  %.01114.i = phi i32 [ %14, %.lr.ph.i ], [ %1, %.preheader.i ]
  %13 = getelementptr inbounds nuw i8, ptr %.015.i, i64 16
  %14 = add nsw i32 %.01114.i, -1
  %.0.i = load ptr, ptr %13, align 8, !tbaa !43
  %15 = icmp samesign ugt i32 %.01114.i, 1
  %16 = icmp ne ptr %.0.i, null
  %17 = select i1 %15, i1 %16, i1 false
  br i1 %17, label %.lr.ph.i, label %filter_lookup.exit, !llvm.loop !69

filter_lookup.exit:                               ; preds = %.lr.ph.i, %4, %.preheader.i
  %.010.i = phi ptr [ %6, %4 ], [ %.013.i, %.preheader.i ], [ %.0.i, %.lr.ph.i ]
  %18 = icmp eq ptr %.010.i, null
  br i1 %18, label %filter_lookup.exit.thread, label %19

19:                                               ; preds = %filter_lookup.exit
  %20 = getelementptr inbounds nuw i8, ptr %.010.i, i64 88
  %21 = load i32, ptr %20, align 8, !tbaa !70
  br label %filter_lookup.exit.thread

filter_lookup.exit.thread:                        ; preds = %7, %filter_lookup.exit, %19
  %22 = phi i32 [ %21, %19 ], [ -1, %filter_lookup.exit ], [ -1, %7 ]
  ret i32 %22
}